target datalayout = "e-m:e-p270:32:32-p271:32:32-p272:64:64-i64:64-i128:128-f80:128-n8:16:32:64-S128"
target triple = "x86_64-pc-linux-gnu"

%"class.__gnu_cxx::__normal_iterator.67" = type { ptr }
%"class.testing::internal::ValuesInIteratorRangeGenerator<opencv_test::(anonymous namespace)::Feature2DType>::Iterator" = type { %"class.testing::internal::ParamIteratorInterface", ptr, %"class.__gnu_cxx::__normal_iterator.67", %"class.testing::internal::scoped_ptr.68" }
%"class.testing::internal::ParamIteratorInterface" = type { ptr }
%"class.testing::internal::scoped_ptr.68" = type { ptr }

; Function Attrs: mustprogress uwtable
define internal void @_ZN7testing8internal10scoped_ptrIKN11opencv_test12_GLOBAL__N_113Feature2DTypeEE5resetEPS5_(ptr noundef nonnull align 8 dereferenceable(8) %0, ptr noundef %1) #5 align 2 {
  %3 = alloca ptr, align 8
  %4 = alloca ptr, align 8
  store ptr %0, ptr %3, align 8
  store ptr %1, ptr %4, align 8
  %5 = load ptr, ptr %3, align 8
  %6 = load ptr, ptr %4, align 8
  %7 = getelementptr inbounds %"class.testing::internal::scoped_ptr.68", ptr %5, i32 0, i32 0
  %8 = load ptr, ptr %7, align 8
  %9 = icmp ne ptr %6, %8
  br i1 %9, label %10, label %21

10:                                               ; preds = %2
  %11 = call noundef zeroext i1 @_ZN7testing8internal6IsTrueEb(i1 noundef zeroext true)
  br i1 %11, label %12, label %18

12:                                               ; preds = %10
  %13 = getelementptr inbounds %"class.testing::internal::scoped_ptr.68", ptr %5, i32 0, i32 0
  %14 = load ptr, ptr %13, align 8
  %15 = icmp eq ptr %14, null
  br i1 %15, label %17, label %16

16:                                               ; preds = %12
  call void @_ZdlPv(ptr noundef %14) #20
  br label %17

17:                                               ; preds = %16, %12
  br label %18

18:                                               ; preds = %17, %10
  %19 = load ptr, ptr %4, align 8
  %20 = getelementptr inbounds %"class.testing::internal::scoped_ptr.68", ptr %5, i32 0, i32 0
  store ptr %19, ptr %20, align 8
  br label %21

21:                                               ; preds = %18, %2
  ret void
}

; Function Attrs: mustprogress nounwind uwtable
define internal noundef nonnull align 4 dereferenceable(4) ptr @_ZNK9__gnu_cxx17__normal_iteratorIPKN11opencv_test12_GLOBAL__N_113Feature2DTypeESt6vectorIS3_SaIS3_EEEdeEv(ptr noundef nonnull align 8 dereferenceable(8) %0) #4 align 2 {
  %2 = alloca ptr, align 8
  store ptr %0, ptr %2, align 8
  %3 = load ptr, ptr %2, align 8
  %4 = getelementptr inbounds %"class.__gnu_cxx::__normal_iterator.67", ptr %3, i32 0, i32 0
  %5 = load ptr, ptr %4, align 8
  ret ptr %5
}

; Function Attrs: mustprogress nounwind uwtable
define internal noundef ptr @_ZNK7testing8internal10scoped_ptrIKN11opencv_test12_GLOBAL__N_113Feature2DTypeEE3getEv(ptr noundef nonnull align 8 dereferenceable(8) %0) #4 align 2 {
  %2 = alloca ptr, align 8
  store ptr %0, ptr %2, align 8
  %3 = load ptr, ptr %2, align 8
  %4 = getelementptr inbounds %"class.testing::internal::scoped_ptr.68", ptr %3, i32 0, i32 0
  %5 = load ptr, ptr %4, align 8
  ret ptr %5
}

; Function Attrs: mustprogress uwtable
define internal noundef ptr @_ZNK7testing8internal30ValuesInIteratorRangeGeneratorIN11opencv_test12_GLOBAL__N_113Feature2DTypeEE8Iterator7CurrentEv(ptr noundef nonnull align 8 dereferenceable(32) %0) unnamed_addr #5 align 2 {
  %2 = alloca ptr, align 8
  store ptr %0, ptr %2, align 8
  %3 = load ptr, ptr %2, align 8
  %4 = getelementptr inbounds %"class.testing::internal::ValuesInIteratorRangeGenerator<opencv_test::(anonymous namespace)::Feature2DType>::Iterator", ptr %3, i32 0, i32 3
  %5 = call noundef ptr @_ZNK7testing8internal10scoped_ptrIKN11opencv_test12_GLOBAL__N_113Feature2DTypeEE3getEv(ptr noundef nonnull align 8 dereferenceable(8) %4)
  %6 = icmp eq ptr %5, null
  br i1 %6, label %7, label %12

7:                                                ; preds = %1
  %8 = getelementptr inbounds %"class.testing::internal::ValuesInIteratorRangeGenerator<opencv_test::(anonymous namespace)::Feature2DType>::Iterator", ptr %3, i32 0, i32 3
  %9 = call noalias noundef nonnull ptr @_Znwm(i64 noundef 4) #19
  %10 = getelementptr inbounds %"class.testing::internal::ValuesInIteratorRangeGenerator<opencv_test::(anonymous namespace)::Feature2DType>::Iterator", ptr %3, i32 0, i32 2
  %11 = call noundef nonnull align 4 dereferenceable(4) ptr @_ZNK9__gnu_cxx17__normal_iteratorIPKN11opencv_test12_GLOBAL__N_113Feature2DTypeESt6vectorIS3_SaIS3_EEEdeEv(ptr noundef nonnull align 8 dereferenceable(8) %10) #3
  call void @llvm.memcpy.p0.p0.i64(ptr align 4 %9, ptr align 4 %11, i64 4, i1 false)
  call void @_ZN7testing8internal10scoped_ptrIKN11opencv_test12_GLOBAL__N_113Feature2DTypeEE5resetEPS5_(ptr noundef nonnull align 8 dereferenceable(8) %8, ptr noundef %9)
  br label %12

12:                                               ; preds = %7, %1
  %13 = getelementptr inbounds %"class.testing::internal::ValuesInIteratorRangeGenerator<opencv_test::(anonymous namespace)::Feature2DType>::Iterator", ptr %3, i32 0, i32 3
  %14 = call noundef ptr @_ZNK7testing8internal10scoped_ptrIKN11opencv_test12_GLOBAL__N_113Feature2DTypeEE3getEv(ptr noundef nonnull align 8 dereferenceable(8) %13)
  ret ptr %14
}